#include <math.h>
#include <stdio.h>
#include <stdlib.h>
#include <string.h>

void main()
{
	int i,j;
	char str[20],str1[20],str2[20];
	scanf("%s%s",str,str1);
	if(strlen(str)<strlen(str1))
	{
		strcpy(str2,str);
		strcpy(str,str1);
		strcpy(str1,str2);
	}
	for(i=0;i<strlen(str);i++)
		for(j=0;j<strlen(str1);j++)
		{
			if(str[i]==str1[j])
			{
				str1[j]='0';
				break;
			}
		}
	for(i=0;i<strlen(str);i++)
	{
		if(str1[i]!='0')
		{
			printf("NO\n");
			break;
		}
	}
	if(i>strlen(str)-1)
		printf("YES\n");
}
