; ModuleID = 'source-C-CXX/35/507.c'
source_filename = "source-C-CXX/35/507.c"
target datalayout = "e-m:e-p270:32:32-p271:32:32-p272:64:64-i64:64-f80:128-n8:16:32:64-S128"
target triple = "x86_64-pc-linux-gnu"

@.str = private unnamed_addr constant [5 x i8] c"%s%s\00", align 1
@str = private unnamed_addr constant [4 x i8] c"YES\00", align 1
@str.3 = private unnamed_addr constant [3 x i8] c"NO\00", align 1

; Function Attrs: nofree nounwind sspstrong uwtable
define dso_local void @main() local_unnamed_addr #0 {
  %1 = alloca [20 x i8], align 16
  %2 = alloca [20 x i8], align 16
  %3 = alloca [20 x i8], align 16
  %4 = getelementptr inbounds [20 x i8], [20 x i8]* %1, i64 0, i64 0
  call void @llvm.lifetime.start.p0i8(i64 20, i8* nonnull %4) #6
  %5 = getelementptr inbounds [20 x i8], [20 x i8]* %2, i64 0, i64 0
  call void @llvm.lifetime.start.p0i8(i64 20, i8* nonnull %5) #6
  %6 = getelementptr inbounds [20 x i8], [20 x i8]* %3, i64 0, i64 0
  call void @llvm.lifetime.start.p0i8(i64 20, i8* nonnull %6) #6
  %7 = call i32 (i8*, ...) @__isoc99_scanf(i8* getelementptr inbounds ([5 x i8], [5 x i8]* @.str, i64 0, i64 0), i8* nonnull %4, i8* nonnull %5)
  %8 = call i64 @strlen(i8* noundef nonnull %4) #7
  %9 = call i64 @strlen(i8* noundef nonnull %5) #7
  %10 = icmp ult i64 %8, %9
  br i1 %10, label %11, label %15

11:                                               ; preds = %0
  %12 = call i8* @strcpy(i8* noundef nonnull %6, i8* noundef nonnull %4) #6
  %13 = call i8* @strcpy(i8* noundef nonnull %4, i8* noundef nonnull %5) #6
  %14 = call i8* @strcpy(i8* noundef nonnull %5, i8* noundef nonnull %6) #6
  br label %15

15:                                               ; preds = %11, %0
  %16 = call i64 @strlen(i8* noundef nonnull %4) #7
  %17 = icmp eq i64 %16, 0
  br i1 %17, label %50, label %18

18:                                               ; preds = %15, %37
  %19 = phi i64 [ %38, %37 ], [ 0, %15 ]
  %20 = call i64 @strlen(i8* noundef nonnull %5) #7
  %21 = icmp eq i64 %20, 0
  br i1 %21, label %37, label %22

22:                                               ; preds = %18
  %23 = getelementptr inbounds [20 x i8], [20 x i8]* %1, i64 0, i64 %19
  %24 = load i8, i8* %23, align 1, !tbaa !5
  br label %26

25:                                               ; preds = %37
  br i1 %17, label %50, label %40

26:                                               ; preds = %22, %34
  %27 = phi i64 [ 0, %22 ], [ %35, %34 ]
  %28 = getelementptr inbounds [20 x i8], [20 x i8]* %2, i64 0, i64 %27
  %29 = load i8, i8* %28, align 1, !tbaa !5
  %30 = icmp eq i8 %24, %29
  br i1 %30, label %31, label %34

31:                                               ; preds = %26
  %32 = and i64 %27, 4294967295
  %33 = getelementptr inbounds [20 x i8], [20 x i8]* %2, i64 0, i64 %32
  store i8 48, i8* %33, align 1, !tbaa !5
  br label %37

34:                                               ; preds = %26
  %35 = add nuw i64 %27, 1
  %36 = icmp eq i64 %35, %20
  br i1 %36, label %37, label %26, !llvm.loop !8

37:                                               ; preds = %34, %18, %31
  %38 = add nuw nsw i64 %19, 1
  %39 = icmp eq i64 %38, %16
  br i1 %39, label %25, label %18, !llvm.loop !10

40:                                               ; preds = %25, %47
  %41 = phi i64 [ %48, %47 ], [ 0, %25 ]
  %42 = getelementptr inbounds [20 x i8], [20 x i8]* %2, i64 0, i64 %41
  %43 = load i8, i8* %42, align 1, !tbaa !5
  %44 = icmp eq i8 %43, 48
  br i1 %44, label %47, label %45

45:                                               ; preds = %40
  %46 = call i32 @puts(i8* nonnull dereferenceable(1) getelementptr inbounds ([3 x i8], [3 x i8]* @str.3, i64 0, i64 0))
  br label %50

47:                                               ; preds = %40
  %48 = add nuw i64 %41, 1
  %49 = icmp eq i64 %48, %16
  br i1 %49, label %50, label %40, !llvm.loop !11

50:                                               ; preds = %47, %15, %25, %45
  %51 = phi i64 [ %41, %45 ], [ 0, %25 ], [ 0, %15 ], [ %16, %47 ]
  %52 = and i64 %51, 4294967295
  %53 = call i64 @strlen(i8* noundef nonnull %4) #7
  %54 = add i64 %53, -1
  %55 = icmp ult i64 %54, %52
  br i1 %55, label %56, label %58

56:                                               ; preds = %50
  %57 = call i32 @puts(i8* nonnull dereferenceable(1) getelementptr inbounds ([4 x i8], [4 x i8]* @str, i64 0, i64 0))
  br label %58

58:                                               ; preds = %56, %50
  call void @llvm.lifetime.end.p0i8(i64 20, i8* nonnull %6) #6
  call void @llvm.lifetime.end.p0i8(i64 20, i8* nonnull %5) #6
  call void @llvm.lifetime.end.p0i8(i64 20, i8* nonnull %4) #6
  ret void
}

; Function Attrs: argmemonly mustprogress nofree nosync nounwind willreturn
declare void @llvm.lifetime.start.p0i8(i64 immarg, i8* nocapture) #1

; Function Attrs: nofree nounwind
declare noundef i32 @__isoc99_scanf(i8* nocapture noundef readonly, ...) local_unnamed_addr #2

; Function Attrs: argmemonly mustprogress nofree nounwind readonly willreturn
declare i64 @strlen(i8* nocapture) local_unnamed_addr #3

; Function Attrs: argmemonly mustprogress nofree nounwind willreturn
declare i8* @strcpy(i8* noalias returned writeonly, i8* noalias nocapture readonly) local_unnamed_addr #4

; Function Attrs: argmemonly mustprogress nofree nosync nounwind willreturn
declare void @llvm.lifetime.end.p0i8(i64 immarg, i8* nocapture) #1

; Function Attrs: nofree nounwind
declare noundef i32 @puts(i8* nocapture noundef readonly) local_unnamed_addr #5


!llvm.module.flags = !{!0, !1, !2, !3}
!llvm.ident = !{!4}

!0 = !{i32 1, !"wchar_size", i32 4}
!1 = !{i32 7, !"PIC Level", i32 2}
!2 = !{i32 7, !"PIE Level", i32 2}
!3 = !{i32 7, !"uwtable", i32 1}
!4 = !{!"clang version 13.0.0"}
!5 = !{!6, !6, i64 0}
!6 = !{!"omnipotent char", !7, i64 0}
!7 = !{!"Simple C/C++ TBAA"}
!8 = distinct !{!8, !9}
!9 = !{!"llvm.loop.mustprogress"}
!10 = distinct !{!10, !9}
!11 = distinct !{!11, !9}
